; Function Attrs: nounwind uwtable
define internal noundef i32 @camellia_cfb_cipher(ptr noundef %0, ptr noundef %1, ptr noundef %2, i64 noundef %3) #1 {
  %5 = alloca i32, align 4
  %6 = tail call ptr @EVP_CIPHER_CTX_get_cipher_data(ptr noundef %0) #4
  call void @llvm.lifetime.start.p0(i64 4, ptr nonnull %5) #4
  %7 = tail call i32 @EVP_CIPHER_CTX_get_num(ptr noundef %0) #4
  store i32 %7, ptr %5, align 4, !tbaa !13
  %8 = getelementptr inbounds nuw i8, ptr %0, i64 40
  %9 = tail call i32 @EVP_CIPHER_CTX_is_encrypting(ptr noundef %0) #4
  %10 = getelementptr inbounds nuw i8, ptr %6, i64 280
  %11 = load ptr, ptr %10, align 8, !tbaa !3
  call void @CRYPTO_cfb128_encrypt(ptr noundef %2, ptr noundef %1, i64 noundef %3, ptr noundef %6, ptr noundef nonnull %8, ptr noundef nonnull %5, i32 noundef %9, ptr noundef %11) #4
  %12 = load i32, ptr %5, align 4, !tbaa !13
  %13 = call i32 @EVP_CIPHER_CTX_set_num(ptr noundef %0, i32 noundef %12) #4
  call void @llvm.lifetime.end.p0(i64 4, ptr nonnull %5) #4
  ret i32 1
}